Certificate:
    Data:
        Version: 3 (0x2)
        Serial Number: 1 (0x1)
        Signature Algorithm: sha1WithRSAEncryption
        Issuer: CN=Michaels Certificate Authority for 452, ST=CA, C=US/emailAddress=mrozsypal@csu.fullerto.edu, O=None, OU=Groupwork
        Validity
            Not Before: May 17 19:57:11 2020 GMT
            Not After : May 16 19:57:11 2025 GMT
        Subject: CN=Michaels cert test 1, ST=CA, C=US/emailAddress=None, O=None, OU=Groupwork
        Subject Public Key Info:
            Public Key Algorithm: rsaEncryption
                RSA Public-Key: (1024 bit)
                Modulus:
                    00:ef:b8:7d:35:09:cd:14:b4:80:0d:7d:35:3a:9a:
                    30:9d:d3:bd:4f:17:24:7e:d1:23:dd:fb:f9:08:97:
                    c3:70:54:0c:b3:b3:ad:ab:1f:ac:15:d9:9c:c1:ee:
                    5e:a5:0c:69:45:ac:fa:27:a5:fb:bb:ce:69:91:cc:
                    d9:9e:fc:9e:c0:79:a3:52:c8:a8:78:66:6a:5b:61:
                    84:63:56:28:d5:d2:16:b3:5a:58:b8:af:92:55:44:
                    b1:2c:16:79:cb:d5:b7:5f:7f:5f:9c:5d:b5:0c:6b:
                    e2:3f:5a:cf:63:03:7d:7d:93:cf:d5:d8:32:4a:3d:
                    33:dd:18:1a:94:b0:da:be:8f
                Exponent: 65537 (0x10001)
        X509v3 extensions:
            X509v3 Basic Constraints: 
                CA:FALSE
            X509v3 Key Usage: 
                Digital Signature, Non Repudiation, Key Encipherment
            X509v3 Subject Alternative Name: 
                DNS:tradeshowhell.com, DNS:alt.tradeshowhell.com
    Signature Algorithm: sha1WithRSAEncryption
         5c:f2:d9:17:59:2d:a6:a9:71:ec:9a:2e:19:3b:f0:3c:74:44:
         c8:b1:a0:2c:59:fc:a8:74:5d:84:34:47:0a:1c:c5:88:8b:6f:
         01:0f:f7:48:55:44:91:4b:0e:02:2b:06:d7:87:d8:f7:fa:fe:
         65:53:5e:a3:d1:6f:d4:d7:5c:16:fc:65:46:1c:ed:ac:13:64:
         0e:ad:d7:58:d7:f3:5b:99:50:d3:d3:c6:24:d6:c8:f5:a8:e7:
         a4:e2:02:5e:41:a9:bd:9e:50:cc:2c:c4:81:38:76:3d:f6:a3:
         7e:ce:0e:bf:0b:3a:65:9d:4b:8f:6a:35:7a:3d:93:d8:da:18:
         53:5e:fe:84:88:0a:c3:88:5e:73:c0:ce:9a:1e:91:51:59:16:
         b7:15:c4:21:a3:8e:d3:9d:a3:7d:8a:c9:7d:9d:94:16:3b:61:
         02:95:d9:bf:49:45:87:8e:13:7e:92:62:fa:9c:08:a8:f2:9d:
         12:30:9e:f8:cc:d8:38:b2:5e:71:a4:94:18:51:f8:d7:c2:d3:
         04:6f:f1:cf:9b:fd:e4:ea:5f:4a:56:3b:a5:de:f6:84:0c:12:
         4f:ef:18:39:30:39:61:32:ab:0a:bf:5f:e3:6d:2e:c9:04:5b:
         9a:38:f0:44:42:e5:1b:5f:97:6e:eb:e4:c3:91:f1:9d:1d:48:
         1d:1c:88:2c
-----BEGIN CERTIFICATE-----
MIIDUTCCAjmgAwIBAgIBATANBgkqhkiG9w0BAQUFADCBmTEvMC0GA1UEAwwmTWlj
aGFlbHMgQ2VydGlmaWNhdGUgQXV0aG9yaXR5IGZvciA0NTIxCzAJBgNVBAgMAkNB
MQswCQYDVQQGEwJVUzEpMCcGCSqGSIb3DQEJARYabXJvenN5cGFsQGNzdS5mdWxs
ZXJ0by5lZHUxDTALBgNVBAoMBE5vbmUxEjAQBgNVBAsMCUdyb3Vwd29yazAeFw0y
MDA1MTcxOTU3MTFaFw0yNTA1MTYxOTU3MTFaMHExHTAbBgNVBAMMFE1pY2hhZWxz
IGNlcnQgdGVzdCAxMQswCQYDVQQIDAJDQTELMAkGA1UEBhMCVVMxEzARBgkqhkiG
9w0BCQEWBE5vbmUxDTALBgNVBAoMBE5vbmUxEjAQBgNVBAsMCUdyb3Vwd29yazCB
nzANBgkqhkiG9w0BAQEFAAOBjQAwgYkCgYEA77h9NQnNFLSADX01OpowndO9Txck
ftEj3fv5CJfDcFQMs7Otqx+sFdmcwe5epQxpRaz6J6X7u85pkczZnvyewHmjUsio
eGZqW2GEY1Yo1dIWs1pYuK+SVUSxLBZ5y9W3X39fnF21DGviP1rPYwN9fZPP1dgy
Sj0z3RgalLDavo8CAwEAAaNPME0wCQYDVR0TBAIwADALBgNVHQ8EBAMCBeAwMwYD
VR0RBCwwKoIRdHJhZGVzaG93aGVsbC5jb22CFWFsdC50cmFkZXNob3doZWxsLmNv
bTANBgkqhkiG9w0BAQUFAAOCAQEAXPLZF1ktpqlx7JouGTvwPHREyLGgLFn8qHRd
hDRHChzFiItvAQ/3SFVEkUsOAisG14fY9/r+ZVNeo9Fv1NdcFvxlRhztrBNkDq3X
WNfzW5lQ09PGJNbI9ajnpOICXkGpvZ5QzCzEgTh2Pfajfs4Ovws6ZZ1Lj2o1ej2T
2NoYU17+hIgKw4hec8DOmh6RUVkWtxXEIaOO052jfYrJfZ2UFjthApXZv0lFh44T
fpJi+pwIqPKdEjCe+MzYOLJecaSUGFH418LTBG/xz5v95OpfSlY7pd72hAwST+8Y
OTA5YTKrCr9f420uyQRbmjjwRELlG1+Xbuvkw5HxnR1IHRyILA==
-----END CERTIFICATE-----
